; Function Attrs: mustprogress uwtable
define noundef nonnull align 8 dereferenceable(32) ptr @_ZNK4YAML7Scanner13GetValueRegexEv(ptr noundef nonnull readonly align 8 captures(none) dereferenceable(488) %0) local_unnamed_addr #0 align 2 personality ptr @__gxx_personality_v0 {
  %2 = getelementptr inbounds nuw i8, ptr %0, i64 456
  %3 = getelementptr inbounds nuw i8, ptr %0, i64 424
  %4 = load ptr, ptr %2, align 8, !tbaa !99
  %5 = load ptr, ptr %3, align 8, !tbaa !99
  %6 = icmp eq ptr %4, %5
  br i1 %6, label %7, label %9

7:                                                ; preds = %1
  %8 = tail call noundef nonnull align 8 dereferenceable(32) ptr @_ZN4YAML3Exp5ValueEv()
  br label %_ZN4YAML3Exp15ValueInJSONFlowEv.exit

9:                                                ; preds = %1
  %10 = getelementptr inbounds nuw i8, ptr %0, i64 220
  %11 = load i8, ptr %10, align 4, !tbaa !153, !range !93, !noundef !94
  %12 = trunc nuw i8 %11 to i1
  br i1 %12, label %13, label %23

13:                                               ; preds = %9
  %14 = load atomic i8, ptr @_ZGVZN4YAML3Exp15ValueInJSONFlowEvE1e acquire, align 8
  %15 = icmp eq i8 %14, 0
  br i1 %15, label %16, label %_ZN4YAML3Exp15ValueInJSONFlowEv.exit, !prof !132

16:                                               ; preds = %13
  %17 = tail call i32 @__cxa_guard_acquire(ptr nonnull @_ZGVZN4YAML3Exp15ValueInJSONFlowEvE1e) #23
  %.not.i = icmp eq i32 %17, 0
  br i1 %.not.i, label %_ZN4YAML3Exp15ValueInJSONFlowEv.exit, label %18

18:                                               ; preds = %16
  invoke void @_ZN4YAML5RegExC1Ec(ptr noundef nonnull align 8 dereferenceable(32) @_ZZN4YAML3Exp15ValueInJSONFlowEvE1e, i8 noundef signext 58)
          to label %19 unwind label %21

19:                                               ; preds = %18
  %20 = tail call i32 @__cxa_atexit(ptr nonnull @_ZN4YAML5RegExD2Ev, ptr nonnull @_ZZN4YAML3Exp15ValueInJSONFlowEvE1e, ptr nonnull @__dso_handle) #23
  tail call void @__cxa_guard_release(ptr nonnull @_ZGVZN4YAML3Exp15ValueInJSONFlowEvE1e) #23
  br label %_ZN4YAML3Exp15ValueInJSONFlowEv.exit

21:                                               ; preds = %18
  %22 = landingpad { ptr, i32 }
          cleanup
  tail call void @__cxa_guard_abort(ptr nonnull @_ZGVZN4YAML3Exp15ValueInJSONFlowEvE1e) #23
  resume { ptr, i32 } %22

23:                                               ; preds = %9
  %24 = tail call noundef nonnull align 8 dereferenceable(32) ptr @_ZN4YAML3Exp11ValueInFlowEv()
  br label %_ZN4YAML3Exp15ValueInJSONFlowEv.exit

_ZN4YAML3Exp15ValueInJSONFlowEv.exit:             ; preds = %19, %16, %13, %23, %7
  %.0 = phi ptr [ %8, %7 ], [ %24, %23 ], [ @_ZZN4YAML3Exp15ValueInJSONFlowEvE1e, %13 ], [ @_ZZN4YAML3Exp15ValueInJSONFlowEvE1e, %16 ], [ @_ZZN4YAML3Exp15ValueInJSONFlowEvE1e, %19 ]
  ret ptr %.0
}